; Function Attrs: alwaysinline norecurse nounwind uwtable
define internal void @_ZNK8LightGBM21RegressionTweedieLoss12GetGradientsEPKdPfS3_.omp_outlined.84(ptr noalias noundef readonly captures(none) %0, ptr noalias readnone captures(none) %1, ptr noundef readonly captures(none) %2, ptr noundef nonnull readonly align 8 captures(none) dereferenceable(8) %3, ptr noundef nonnull readonly align 8 captures(none) dereferenceable(8) %4, ptr noundef nonnull readonly align 8 captures(none) dereferenceable(8) %5) #14 {
  %7 = alloca i32, align 4
  %8 = alloca i32, align 4
  %9 = alloca i32, align 4
  %10 = alloca i32, align 4
  %11 = getelementptr inbounds nuw i8, ptr %2, i64 12
  %12 = load i32, ptr %11, align 4, !tbaa !147
  %13 = icmp sgt i32 %12, 0
  br i1 %13, label %14, label %63

14:                                               ; preds = %6
  %15 = add nsw i32 %12, -1
  call void @llvm.lifetime.start.p0(i64 4, ptr nonnull %7) #15
  store i32 0, ptr %7, align 4, !tbaa !127
  call void @llvm.lifetime.start.p0(i64 4, ptr nonnull %8) #15
  store i32 %15, ptr %8, align 4, !tbaa !127
  call void @llvm.lifetime.start.p0(i64 4, ptr nonnull %9) #15
  store i32 1, ptr %9, align 4, !tbaa !127
  call void @llvm.lifetime.start.p0(i64 4, ptr nonnull %10) #15
  store i32 0, ptr %10, align 4, !tbaa !127
  %16 = load i32, ptr %0, align 4, !tbaa !127
  call void @__kmpc_for_static_init_4(ptr nonnull @1, i32 %16, i32 34, ptr nonnull %10, ptr nonnull %7, ptr nonnull %8, ptr nonnull %9, i32 1, i32 1)
  %17 = load i32, ptr %8, align 4, !tbaa !127
  %18 = call i32 @llvm.smin.i32(i32 %17, i32 %15)
  store i32 %18, ptr %8, align 4, !tbaa !127
  %19 = load i32, ptr %7, align 4, !tbaa !127
  %.not25 = icmp sgt i32 %19, %18
  br i1 %.not25, label %._crit_edge, label %.lr.ph

.lr.ph:                                           ; preds = %14
  %20 = getelementptr inbounds nuw i8, ptr %2, i64 72
  %21 = load double, ptr %20, align 8, !tbaa !142
  %22 = fsub double 1.000000e+00, %21
  %23 = load ptr, ptr %3, align 8, !tbaa !152
  %24 = fsub double 2.000000e+00, %21
  %25 = getelementptr inbounds nuw i8, ptr %2, i64 16
  %26 = load ptr, ptr %25, align 8, !tbaa !148
  %27 = getelementptr inbounds nuw i8, ptr %2, i64 24
  %28 = load ptr, ptr %27, align 8, !tbaa !151
  %29 = load ptr, ptr %4, align 8, !tbaa !150
  %30 = load ptr, ptr %5, align 8, !tbaa !150
  %31 = sext i32 %19 to i64
  br label %32

32:                                               ; preds = %.lr.ph, %32
  %indvars.iv = phi i64 [ %31, %.lr.ph ], [ %indvars.iv.next, %32 ]
  %33 = getelementptr inbounds double, ptr %23, i64 %indvars.iv
  %34 = load double, ptr %33, align 8, !tbaa !153
  %35 = fmul double %22, %34
  %36 = call double @exp(double noundef %35) #15, !tbaa !127
  %37 = fmul double %24, %34
  %38 = call double @exp(double noundef %37) #15, !tbaa !127
  %39 = getelementptr inbounds float, ptr %26, i64 %indvars.iv
  %40 = load float, ptr %39, align 4, !tbaa !175
  %41 = fneg float %40
  %42 = fpext float %41 to double
  %43 = call double @llvm.fmuladd.f64(double %42, double %36, double %38)
  %44 = getelementptr inbounds float, ptr %28, i64 %indvars.iv
  %45 = load float, ptr %44, align 4, !tbaa !175
  %46 = fpext float %45 to double
  %47 = fmul double %43, %46
  %48 = fptrunc double %47 to float
  %49 = getelementptr inbounds float, ptr %29, i64 %indvars.iv
  store float %48, ptr %49, align 4, !tbaa !175
  %50 = load float, ptr %39, align 4, !tbaa !175
  %51 = fneg float %50
  %52 = fpext float %51 to double
  %53 = fmul double %22, %52
  %54 = fmul double %24, %38
  %55 = call double @llvm.fmuladd.f64(double %53, double %36, double %54)
  %56 = load float, ptr %44, align 4, !tbaa !175
  %57 = fpext float %56 to double
  %58 = fmul double %55, %57
  %59 = fptrunc double %58 to float
  %60 = getelementptr inbounds float, ptr %30, i64 %indvars.iv
  store float %59, ptr %60, align 4, !tbaa !175
  %indvars.iv.next = add nsw i64 %indvars.iv, 1
  %61 = load i32, ptr %8, align 4, !tbaa !127
  %62 = sext i32 %61 to i64
  %.not.not = icmp slt i64 %indvars.iv, %62
  br i1 %.not.not, label %32, label %._crit_edge

._crit_edge:                                      ; preds = %32, %14
  call void @__kmpc_for_static_fini(ptr nonnull @1, i32 %16)
  call void @llvm.lifetime.end.p0(i64 4, ptr nonnull %10) #15
  call void @llvm.lifetime.end.p0(i64 4, ptr nonnull %9) #15
  call void @llvm.lifetime.end.p0(i64 4, ptr nonnull %8) #15
  call void @llvm.lifetime.end.p0(i64 4, ptr nonnull %7) #15
  br label %63

63:                                               ; preds = %._crit_edge, %6
  ret void
}